target datalayout = "e-m:e-p270:32:32-p271:32:32-p272:64:64-i64:64-i128:128-f80:128-n8:16:32:64-S128"
target triple = "x86_64-pc-linux-gnu"

%struct.epan_session = type { ptr, %struct.packet_provider_funcs }
%struct.packet_provider_funcs = type { ptr, ptr, ptr, ptr }

; Function Attrs: null_pointer_is_valid sspstrong uwtable
define hidden ptr @epan_get_frame_ts(ptr noundef %0, i32 noundef %1) #5 {
  %3 = alloca ptr, align 8
  %4 = alloca i32, align 4
  %5 = alloca ptr, align 8
  store ptr %0, ptr %3, align 8
  store i32 %1, ptr %4, align 4
  call void @llvm.lifetime.start.p0(i64 8, ptr %5) #17
  store ptr null, ptr %5, align 8
  %6 = load ptr, ptr %3, align 8
  %7 = icmp ne ptr %6, null
  br i1 %7, label %8, label %24

8:                                                ; preds = %2
  %9 = load ptr, ptr %3, align 8
  %10 = getelementptr inbounds nuw %struct.epan_session, ptr %9, i32 0, i32 1
  %11 = getelementptr inbounds nuw %struct.packet_provider_funcs, ptr %10, i32 0, i32 0
  %12 = load ptr, ptr %11, align 8
  %13 = icmp ne ptr %12, null
  br i1 %13, label %14, label %24

14:                                               ; preds = %8
  %15 = load ptr, ptr %3, align 8
  %16 = getelementptr inbounds nuw %struct.epan_session, ptr %15, i32 0, i32 1
  %17 = getelementptr inbounds nuw %struct.packet_provider_funcs, ptr %16, i32 0, i32 0
  %18 = load ptr, ptr %17, align 8
  %19 = load ptr, ptr %3, align 8
  %20 = getelementptr inbounds nuw %struct.epan_session, ptr %19, i32 0, i32 0
  %21 = load ptr, ptr %20, align 8
  %22 = load i32, ptr %4, align 4
  %23 = call ptr %18(ptr noundef %21, i32 noundef %22)
  store ptr %23, ptr %5, align 8
  br label %24

24:                                               ; preds = %14, %8, %2
  %25 = load ptr, ptr %5, align 8
  %26 = icmp ne ptr %25, null
  br i1 %26, label %31, label %27

27:                                               ; preds = %24
  br label %28

28:                                               ; preds = %27
  br label %29

29:                                               ; preds = %28
  br label %30

30:                                               ; preds = %29
  br label %31

31:                                               ; preds = %30, %24
  %32 = load ptr, ptr %5, align 8
  call void @llvm.lifetime.end.p0(i64 8, ptr %5) #17
  ret ptr %32
}