; Function Attrs: null_pointer_is_valid sspstrong uwtable
define hidden ptr @epan_get_frame_ts(ptr noundef readonly captures(address_is_null) %0, i32 noundef %1) local_unnamed_addr #6 {
  %.not = icmp eq ptr %0, null
  br i1 %.not, label %9, label %3

3:                                                ; preds = %2
  %4 = getelementptr inbounds nuw i8, ptr %0, i64 8
  %5 = load ptr, ptr %4, align 8
  %.not8 = icmp eq ptr %5, null
  br i1 %.not8, label %9, label %6

6:                                                ; preds = %3
  %7 = load ptr, ptr %0, align 8
  %8 = tail call ptr %5(ptr noundef %7, i32 noundef %1)
  br label %9

9:                                                ; preds = %6, %3, %2
  %.0 = phi ptr [ %8, %6 ], [ null, %3 ], [ null, %2 ]
  ret ptr %.0
}